target datalayout = "e-m:e-p270:32:32-p271:32:32-p272:64:64-i64:64-i128:128-f80:128-n8:16:32:64-S128"
target triple = "x86_64-pc-linux-gnu"

%struct.PauliHamil = type { ptr, ptr, i32, i32 }

@__func__.createPauliHamil = private unnamed_addr constant [17 x i8] c"createPauliHamil\00", align 1

; Function Attrs: nounwind uwtable
define void @createPauliHamil(ptr dead_on_unwind noalias writable sret(%struct.PauliHamil) align 8 %0, i32 noundef %1, i32 noundef %2) #0 {
  %4 = alloca i32, align 4
  %5 = alloca i32, align 4
  %6 = alloca i32, align 4
  store i32 %1, ptr %4, align 4, !tbaa !4
  store i32 %2, ptr %5, align 4, !tbaa !4
  %7 = load i32, ptr %4, align 4, !tbaa !4
  %8 = load i32, ptr %5, align 4, !tbaa !4
  call void @validateHamilParams(i32 noundef %7, i32 noundef %8, ptr noundef @__func__.createPauliHamil)
  %9 = load i32, ptr %4, align 4, !tbaa !4
  %10 = getelementptr inbounds nuw %struct.PauliHamil, ptr %0, i32 0, i32 3
  store i32 %9, ptr %10, align 4, !tbaa !50
  %11 = load i32, ptr %5, align 4, !tbaa !4
  %12 = getelementptr inbounds nuw %struct.PauliHamil, ptr %0, i32 0, i32 2
  store i32 %11, ptr %12, align 8, !tbaa !38
  %13 = load i32, ptr %5, align 4, !tbaa !4
  %14 = sext i32 %13 to i64
  %15 = mul i64 %14, 8
  %16 = call noalias ptr @malloc(i64 noundef %15) #8
  %17 = getelementptr inbounds nuw %struct.PauliHamil, ptr %0, i32 0, i32 1
  store ptr %16, ptr %17, align 8, !tbaa !37
  %18 = load i32, ptr %4, align 4, !tbaa !4
  %19 = load i32, ptr %5, align 4, !tbaa !4
  %20 = mul nsw i32 %18, %19
  %21 = sext i32 %20 to i64
  %22 = mul i64 %21, 4
  %23 = call noalias ptr @malloc(i64 noundef %22) #8
  %24 = getelementptr inbounds nuw %struct.PauliHamil, ptr %0, i32 0, i32 0
  store ptr %23, ptr %24, align 8, !tbaa !35
  call void @llvm.lifetime.start.p0(i64 4, ptr %6) #7
  store i32 0, ptr %6, align 4, !tbaa !4
  br label %25

25:                                               ; preds = %38, %3
  %26 = load i32, ptr %6, align 4, !tbaa !4
  %27 = load i32, ptr %4, align 4, !tbaa !4
  %28 = load i32, ptr %5, align 4, !tbaa !4
  %29 = mul nsw i32 %27, %28
  %30 = icmp slt i32 %26, %29
  br i1 %30, label %32, label %31

31:                                               ; preds = %25
  call void @llvm.lifetime.end.p0(i64 4, ptr %6) #7
  br label %41

32:                                               ; preds = %25
  %33 = getelementptr inbounds nuw %struct.PauliHamil, ptr %0, i32 0, i32 0
  %34 = load ptr, ptr %33, align 8, !tbaa !35
  %35 = load i32, ptr %6, align 4, !tbaa !4
  %36 = sext i32 %35 to i64
  %37 = getelementptr inbounds i32, ptr %34, i64 %36
  store i32 0, ptr %37, align 4, !tbaa !4
  br label %38

38:                                               ; preds = %32
  %39 = load i32, ptr %6, align 4, !tbaa !4
  %40 = add nsw i32 %39, 1
  store i32 %40, ptr %6, align 4, !tbaa !4
  br label %25

41:                                               ; preds = %31
  ret void
}