; Function Attrs: nounwind uwtable
define void @createPauliHamil(ptr dead_on_unwind noalias writable writeonly sret(%struct.PauliHamil) align 8 captures(none) initializes((0, 24)) %0, i32 noundef %1, i32 noundef %2) local_unnamed_addr #0 {
  tail call void @validateHamilParams(i32 noundef %1, i32 noundef %2, ptr noundef nonnull @__func__.createPauliHamil) #17
  %4 = getelementptr inbounds nuw i8, ptr %0, i64 20
  store i32 %1, ptr %4, align 4, !tbaa !33
  %5 = getelementptr inbounds nuw i8, ptr %0, i64 16
  store i32 %2, ptr %5, align 8, !tbaa !24
  %6 = sext i32 %2 to i64
  %7 = shl nsw i64 %6, 3
  %8 = tail call noalias ptr @malloc(i64 noundef %7) #18
  %9 = getelementptr inbounds nuw i8, ptr %0, i64 8
  store ptr %8, ptr %9, align 8, !tbaa !23
  %10 = mul nsw i32 %2, %1
  %11 = sext i32 %10 to i64
  %12 = shl nsw i64 %11, 2
  %13 = tail call noalias ptr @malloc(i64 noundef %12) #18
  store ptr %13, ptr %0, align 8, !tbaa !21
  %14 = icmp sgt i32 %10, 0
  br i1 %14, label %.lr.ph.preheader, label %._crit_edge

.lr.ph.preheader:                                 ; preds = %3
  %15 = zext nneg i32 %10 to i64
  %16 = shl nuw nsw i64 %15, 2
  tail call void @llvm.memset.p0.i64(ptr align 4 %13, i8 0, i64 %16, i1 false), !tbaa !20
  br label %._crit_edge

._crit_edge:                                      ; preds = %.lr.ph.preheader, %3
  ret void
}